; ModuleID = '45/2091.c'
source_filename = "45/2091.c"
target datalayout = "e-m:e-p270:32:32-p271:32:32-p272:64:64-i64:64-f80:128-n8:16:32:64-S128"
target triple = "x86_64-pc-linux-gnu"

@.str = private unnamed_addr constant [4 x i8] c"%d\0A\00", align 1

; Function Attrs: noinline nounwind uwtable
define dso_local void @main() #0 {
  %1 = alloca [100 x i8], align 16
  %2 = alloca i32, align 4
  %3 = alloca i32, align 4
  %4 = alloca i32, align 4
  store i32 0, i32* %2, align 4
  store i32 0, i32* %4, align 4
  %5 = getelementptr inbounds [100 x i8], [100 x i8]* %1, i64 0, i64 0
  %6 = call i32 (i8*, ...) bitcast (i32 (...)* @gets to i32 (i8*, ...)*)(i8* %5)
  br label %7

7:                                                ; preds = %14, %0
  %8 = load i32, i32* %2, align 4
  %9 = sext i32 %8 to i64
  %10 = getelementptr inbounds [100 x i8], [100 x i8]* %1, i64 0, i64 %9
  %11 = load i8, i8* %10, align 1
  %12 = sext i8 %11 to i32
  %13 = icmp ne i32 %12, 32
  br i1 %13, label %14, label %17

14:                                               ; preds = %7
  %15 = load i32, i32* %2, align 4
  %16 = add nsw i32 %15, 1
  store i32 %16, i32* %2, align 4
  br label %7

17:                                               ; preds = %7
  %18 = load i32, i32* %2, align 4
  store i32 %18, i32* %3, align 4
  br label %19

19:                                               ; preds = %56, %17
  %20 = load i32, i32* %3, align 4
  %21 = icmp ne i32 %20, 0
  br i1 %21, label %22, label %59

22:                                               ; preds = %19
  br label %23

23:                                               ; preds = %53, %22
  %24 = load i32, i32* %4, align 4
  %25 = load i32, i32* %3, align 4
  %26 = icmp slt i32 %24, %25
  br i1 %26, label %27, label %56

27:                                               ; preds = %23
  %28 = load i32, i32* %4, align 4
  %29 = sext i32 %28 to i64
  %30 = getelementptr inbounds [100 x i8], [100 x i8]* %1, i64 0, i64 %29
  %31 = load i8, i8* %30, align 1
  %32 = sext i8 %31 to i32
  %33 = load i32, i32* %2, align 4
  %34 = add nsw i32 %33, 1
  %35 = load i32, i32* %4, align 4
  %36 = add nsw i32 %34, %35
  %37 = sext i32 %36 to i64
  %38 = getelementptr inbounds [100 x i8], [100 x i8]* %1, i64 0, i64 %37
  %39 = load i8, i8* %38, align 1
  %40 = sext i8 %39 to i32
  %41 = icmp ne i32 %32, %40
  br i1 %41, label %42, label %43

42:                                               ; preds = %27
  br label %56

43:                                               ; preds = %27
  %44 = load i32, i32* %4, align 4
  %45 = load i32, i32* %3, align 4
  %46 = sub nsw i32 %45, 1
  %47 = icmp eq i32 %44, %46
  br i1 %47, label %48, label %53

48:                                               ; preds = %43
  %49 = load i32, i32* %2, align 4
  %50 = load i32, i32* %3, align 4
  %51 = sub nsw i32 %49, %50
  %52 = call i32 (i8*, ...) @printf(i8* getelementptr inbounds ([4 x i8], [4 x i8]* @.str, i64 0, i64 0), i32 %51)
  store i32 0, i32* %3, align 4
  br label %53

53:                                               ; preds = %48, %43
  %54 = load i32, i32* %4, align 4
  %55 = add nsw i32 %54, 1
  store i32 %55, i32* %4, align 4
  br label %23

56:                                               ; preds = %42, %23
  %57 = load i32, i32* %2, align 4
  %58 = add nsw i32 %57, 1
  store i32 %58, i32* %2, align 4
  br label %19

59:                                               ; preds = %19
  ret void
}

declare dso_local i32 @gets(...) #1

declare dso_local i32 @printf(i8*, ...) #1


!llvm.module.flags = !{!0}
!llvm.ident = !{!1}

!0 = !{i32 1, !"wchar_size", i32 4}
!1 = !{!"clang version 10.0.0-4ubuntu1 "}
